target datalayout = "e-m:e-p270:32:32-p271:32:32-p272:64:64-i64:64-i128:128-f80:128-n8:16:32:64-S128"
target triple = "x86_64-pc-linux-gnu"

%struct._packet_info = type { ptr, ptr, i32, i32, %struct.nstime_t, %struct.nstime_t, %struct.nstime_t, i8, ptr, ptr, ptr, ptr, %struct._address, %struct._address, %struct._address, %struct._address, %struct._address, %struct._address, i32, ptr, i8, [3 x i8], %struct.anon, i32, i32, i32, i32, ptr, i8, ptr, ptr, i16, i16, i32, i32, i16, i32, i32, ptr, ptr, ptr, i8, i8, i16, i16, i16, i32, i16, i16, ptr, ptr, ptr, ptr, ptr, i32, i32 }
%struct.nstime_t = type { i64, i32 }
%struct._address = type { i32, i32, ptr, ptr }
%struct.anon = type { i8, [3 x i8] }

@hf_tacacs_version = internal global i32 0, align 4
@hf_tacacs_type = internal global i32 0, align 4
@hf_tacacs_nonce = internal global i32 0, align 4
@hf_tacacs_userlen = internal global i32 0, align 4
@hf_tacacs_passlen = internal global i32 0, align 4
@hf_tacacs_response = internal global i32 0, align 4
@hf_tacacs_reason = internal global i32 0, align 4
@hf_tacacs_result1 = internal global i32 0, align 4
@hf_tacacs_destaddr = internal global i32 0, align 4
@hf_tacacs_destport = internal global i32 0, align 4
@hf_tacacs_line = internal global i32 0, align 4
@hf_tacacs_result2 = internal global i32 0, align 4
@hf_tacacs_result3 = internal global i32 0, align 4
@hf_tacacs_username = internal global i32 0, align 4
@hf_tacacs_password = internal global i32 0, align 4
@ett_tacacs = internal global i32 0, align 4
@.str.30 = private unnamed_addr constant [7 x i8] c"TACACS\00", align 1
@proto_tacacs = internal global i32 0, align 4
@.str.165 = private unnamed_addr constant [8 x i8] c"XTACACS\00", align 1
@.str.191 = private unnamed_addr constant [17 x i8] c"Unknown (0x%02x)\00", align 1

; Function Attrs: null_pointer_is_valid sspstrong uwtable
define internal i32 @dissect_tacacs(ptr noundef %0, ptr noundef %1, ptr noundef %2, ptr noundef %3) #0 {
  %5 = alloca ptr, align 8
  %6 = alloca ptr, align 8
  %7 = alloca ptr, align 8
  %8 = alloca ptr, align 8
  %9 = alloca ptr, align 8
  %10 = alloca ptr, align 8
  %11 = alloca i32, align 4
  %12 = alloca i32, align 4
  %13 = alloca i32, align 4
  %14 = alloca i32, align 4
  store ptr %0, ptr %5, align 8
  store ptr %1, ptr %6, align 8
  store ptr %2, ptr %7, align 8
  store ptr %3, ptr %8, align 8
  call void @llvm.lifetime.start.p0(i64 8, ptr %9) #12
  call void @llvm.lifetime.start.p0(i64 8, ptr %10) #12
  call void @llvm.lifetime.start.p0(i64 4, ptr %11) #12
  call void @llvm.lifetime.start.p0(i64 4, ptr %12) #12
  call void @llvm.lifetime.start.p0(i64 4, ptr %13) #12
  call void @llvm.lifetime.start.p0(i64 4, ptr %14) #12
  %15 = load ptr, ptr %6, align 8
  %16 = getelementptr inbounds nuw %struct._packet_info, ptr %15, i32 0, i32 1
  %17 = load ptr, ptr %16, align 8
  call void @col_set_str(ptr noundef %17, i32 noundef 35, ptr noundef @.str.30)
  %18 = load ptr, ptr %6, align 8
  %19 = getelementptr inbounds nuw %struct._packet_info, ptr %18, i32 0, i32 1
  %20 = load ptr, ptr %19, align 8
  call void @col_clear(ptr noundef %20, i32 noundef 25)
  %21 = load ptr, ptr %5, align 8
  %22 = call zeroext i8 @tvb_get_uint8(ptr noundef %21, i32 noundef 0)
  %23 = zext i8 %22 to i32
  store i32 %23, ptr %11, align 4
  %24 = load i32, ptr %11, align 4
  %25 = icmp ne i32 %24, 0
  br i1 %25, label %26, label %30

26:                                               ; preds = %4
  %27 = load ptr, ptr %6, align 8
  %28 = getelementptr inbounds nuw %struct._packet_info, ptr %27, i32 0, i32 1
  %29 = load ptr, ptr %28, align 8
  call void @col_set_str(ptr noundef %29, i32 noundef 35, ptr noundef @.str.165)
  br label %30

30:                                               ; preds = %26, %4
  %31 = load ptr, ptr %5, align 8
  %32 = call zeroext i8 @tvb_get_uint8(ptr noundef %31, i32 noundef 1)
  %33 = zext i8 %32 to i32
  store i32 %33, ptr %12, align 4
  %34 = load ptr, ptr %6, align 8
  %35 = getelementptr inbounds nuw %struct._packet_info, ptr %34, i32 0, i32 1
  %36 = load ptr, ptr %35, align 8
  %37 = load i32, ptr %12, align 4
  %38 = call ptr @val_to_str(i32 noundef %37, ptr noundef @tacacs_type_vals, ptr noundef @.str.191)
  call void @col_add_str(ptr noundef %36, i32 noundef 25, ptr noundef %38)
  %39 = load ptr, ptr %7, align 8
  %40 = load i32, ptr @proto_tacacs, align 4
  %41 = load ptr, ptr %5, align 8
  %42 = load i32, ptr %11, align 4
  %43 = icmp eq i32 %42, 0
  %44 = select i1 %43, ptr @.str.30, ptr @.str.165
  %45 = call ptr (ptr, i32, ptr, i32, i32, ptr, ...) @proto_tree_add_protocol_format(ptr noundef %39, i32 noundef %40, ptr noundef %41, i32 noundef 0, i32 noundef -1, ptr noundef %44)
  store ptr %45, ptr %10, align 8
  %46 = load ptr, ptr %10, align 8
  %47 = load i32, ptr @ett_tacacs, align 4
  %48 = call ptr @proto_item_add_subtree(ptr noundef %46, i32 noundef %47)
  store ptr %48, ptr %9, align 8
  %49 = load ptr, ptr %9, align 8
  %50 = load i32, ptr @hf_tacacs_version, align 4
  %51 = load ptr, ptr %5, align 8
  %52 = load i32, ptr %11, align 4
  %53 = call ptr @proto_tree_add_uint(ptr noundef %49, i32 noundef %50, ptr noundef %51, i32 noundef 0, i32 noundef 1, i32 noundef %52)
  %54 = load ptr, ptr %9, align 8
  %55 = load i32, ptr @hf_tacacs_type, align 4
  %56 = load ptr, ptr %5, align 8
  %57 = load i32, ptr %12, align 4
  %58 = call ptr @proto_tree_add_uint(ptr noundef %54, i32 noundef %55, ptr noundef %56, i32 noundef 1, i32 noundef 1, i32 noundef %57)
  %59 = load ptr, ptr %9, align 8
  %60 = load i32, ptr @hf_tacacs_nonce, align 4
  %61 = load ptr, ptr %5, align 8
  %62 = call ptr @proto_tree_add_item(ptr noundef %59, i32 noundef %60, ptr noundef %61, i32 noundef 2, i32 noundef 2, i32 noundef 0)
  %63 = load i32, ptr %11, align 4
  %64 = icmp eq i32 %63, 0
  br i1 %64, label %65, label %99

65:                                               ; preds = %30
  %66 = load i32, ptr %12, align 4
  %67 = icmp ne i32 %66, 2
  br i1 %67, label %68, label %89

68:                                               ; preds = %65
  %69 = load ptr, ptr %9, align 8
  %70 = load i32, ptr @hf_tacacs_userlen, align 4
  %71 = load ptr, ptr %5, align 8
  %72 = call ptr @proto_tree_add_item_ret_uint(ptr noundef %69, i32 noundef %70, ptr noundef %71, i32 noundef 4, i32 noundef 1, i32 noundef 0, ptr noundef %13)
  %73 = load ptr, ptr %9, align 8
  %74 = load i32, ptr @hf_tacacs_passlen, align 4
  %75 = load ptr, ptr %5, align 8
  %76 = call ptr @proto_tree_add_item_ret_uint(ptr noundef %73, i32 noundef %74, ptr noundef %75, i32 noundef 5, i32 noundef 1, i32 noundef 0, ptr noundef %14)
  %77 = load ptr, ptr %9, align 8
  %78 = load i32, ptr @hf_tacacs_username, align 4
  %79 = load ptr, ptr %5, align 8
  %80 = load i32, ptr %13, align 4
  %81 = call ptr @proto_tree_add_item(ptr noundef %77, i32 noundef %78, ptr noundef %79, i32 noundef 6, i32 noundef %80, i32 noundef 0)
  %82 = load ptr, ptr %9, align 8
  %83 = load i32, ptr @hf_tacacs_password, align 4
  %84 = load ptr, ptr %5, align 8
  %85 = load i32, ptr %13, align 4
  %86 = add i32 6, %85
  %87 = load i32, ptr %14, align 4
  %88 = call ptr @proto_tree_add_item(ptr noundef %82, i32 noundef %83, ptr noundef %84, i32 noundef %86, i32 noundef %87, i32 noundef 0)
  br label %98

89:                                               ; preds = %65
  %90 = load ptr, ptr %9, align 8
  %91 = load i32, ptr @hf_tacacs_response, align 4
  %92 = load ptr, ptr %5, align 8
  %93 = call ptr @proto_tree_add_item(ptr noundef %90, i32 noundef %91, ptr noundef %92, i32 noundef 4, i32 noundef 1, i32 noundef 0)
  %94 = load ptr, ptr %9, align 8
  %95 = load i32, ptr @hf_tacacs_reason, align 4
  %96 = load ptr, ptr %5, align 8
  %97 = call ptr @proto_tree_add_item(ptr noundef %94, i32 noundef %95, ptr noundef %96, i32 noundef 5, i32 noundef 1, i32 noundef 0)
  br label %98

98:                                               ; preds = %89, %68
  br label %156

99:                                               ; preds = %30
  %100 = load ptr, ptr %9, align 8
  %101 = load i32, ptr @hf_tacacs_userlen, align 4
  %102 = load ptr, ptr %5, align 8
  %103 = call ptr @proto_tree_add_item_ret_uint(ptr noundef %100, i32 noundef %101, ptr noundef %102, i32 noundef 4, i32 noundef 1, i32 noundef 0, ptr noundef %13)
  %104 = load ptr, ptr %9, align 8
  %105 = load i32, ptr @hf_tacacs_passlen, align 4
  %106 = load ptr, ptr %5, align 8
  %107 = call ptr @proto_tree_add_item_ret_uint(ptr noundef %104, i32 noundef %105, ptr noundef %106, i32 noundef 5, i32 noundef 1, i32 noundef 0, ptr noundef %14)
  %108 = load ptr, ptr %9, align 8
  %109 = load i32, ptr @hf_tacacs_response, align 4
  %110 = load ptr, ptr %5, align 8
  %111 = call ptr @proto_tree_add_item(ptr noundef %108, i32 noundef %109, ptr noundef %110, i32 noundef 6, i32 noundef 1, i32 noundef 0)
  %112 = load ptr, ptr %9, align 8
  %113 = load i32, ptr @hf_tacacs_reason, align 4
  %114 = load ptr, ptr %5, align 8
  %115 = call ptr @proto_tree_add_item(ptr noundef %112, i32 noundef %113, ptr noundef %114, i32 noundef 7, i32 noundef 1, i32 noundef 0)
  %116 = load ptr, ptr %9, align 8
  %117 = load i32, ptr @hf_tacacs_result1, align 4
  %118 = load ptr, ptr %5, align 8
  %119 = call ptr @proto_tree_add_item(ptr noundef %116, i32 noundef %117, ptr noundef %118, i32 noundef 8, i32 noundef 4, i32 noundef 0)
  %120 = load ptr, ptr %9, align 8
  %121 = load i32, ptr @hf_tacacs_destaddr, align 4
  %122 = load ptr, ptr %5, align 8
  %123 = call ptr @proto_tree_add_item(ptr noundef %120, i32 noundef %121, ptr noundef %122, i32 noundef 12, i32 noundef 4, i32 noundef 0)
  %124 = load ptr, ptr %9, align 8
  %125 = load i32, ptr @hf_tacacs_destport, align 4
  %126 = load ptr, ptr %5, align 8
  %127 = call ptr @proto_tree_add_item(ptr noundef %124, i32 noundef %125, ptr noundef %126, i32 noundef 16, i32 noundef 2, i32 noundef 0)
  %128 = load ptr, ptr %9, align 8
  %129 = load i32, ptr @hf_tacacs_line, align 4
  %130 = load ptr, ptr %5, align 8
  %131 = call ptr @proto_tree_add_item(ptr noundef %128, i32 noundef %129, ptr noundef %130, i32 noundef 18, i32 noundef 2, i32 noundef 0)
  %132 = load ptr, ptr %9, align 8
  %133 = load i32, ptr @hf_tacacs_result2, align 4
  %134 = load ptr, ptr %5, align 8
  %135 = call ptr @proto_tree_add_item(ptr noundef %132, i32 noundef %133, ptr noundef %134, i32 noundef 20, i32 noundef 4, i32 noundef 0)
  %136 = load ptr, ptr %9, align 8
  %137 = load i32, ptr @hf_tacacs_result3, align 4
  %138 = load ptr, ptr %5, align 8
  %139 = call ptr @proto_tree_add_item(ptr noundef %136, i32 noundef %137, ptr noundef %138, i32 noundef 24, i32 noundef 2, i32 noundef 0)
  %140 = load i32, ptr %12, align 4
  %141 = icmp ne i32 %140, 2
  br i1 %141, label %142, label %155

142:                                              ; preds = %99
  %143 = load ptr, ptr %9, align 8
  %144 = load i32, ptr @hf_tacacs_username, align 4
  %145 = load ptr, ptr %5, align 8
  %146 = load i32, ptr %13, align 4
  %147 = call ptr @proto_tree_add_item(ptr noundef %143, i32 noundef %144, ptr noundef %145, i32 noundef 26, i32 noundef %146, i32 noundef 0)
  %148 = load ptr, ptr %9, align 8
  %149 = load i32, ptr @hf_tacacs_password, align 4
  %150 = load ptr, ptr %5, align 8
  %151 = load i32, ptr %13, align 4
  %152 = add i32 26, %151
  %153 = load i32, ptr %14, align 4
  %154 = call ptr @proto_tree_add_item(ptr noundef %148, i32 noundef %149, ptr noundef %150, i32 noundef %152, i32 noundef %153, i32 noundef 0)
  br label %155

155:                                              ; preds = %142, %99
  br label %156

156:                                              ; preds = %155, %98
  %157 = load ptr, ptr %5, align 8
  %158 = call i32 @tvb_captured_length(ptr noundef %157)
  call void @llvm.lifetime.end.p0(i64 4, ptr %14) #12
  call void @llvm.lifetime.end.p0(i64 4, ptr %13) #12
  call void @llvm.lifetime.end.p0(i64 4, ptr %12) #12
  call void @llvm.lifetime.end.p0(i64 4, ptr %11) #12
  call void @llvm.lifetime.end.p0(i64 8, ptr %10) #12
  call void @llvm.lifetime.end.p0(i64 8, ptr %9) #12
  ret i32 %158
}