; Function Attrs: null_pointer_is_valid sspstrong uwtable
define internal i32 @dissect_tacacs(ptr noundef %0, ptr noundef readonly captures(none) %1, ptr noundef %2, ptr readnone captures(none) %3) #0 {
  %5 = alloca i32, align 4
  %6 = alloca i32, align 4
  call void @llvm.lifetime.start.p0(i64 4, ptr nonnull %5) #10
  call void @llvm.lifetime.start.p0(i64 4, ptr nonnull %6) #10
  %7 = getelementptr inbounds nuw i8, ptr %1, i64 8
  %8 = load ptr, ptr %7, align 8
  tail call void @col_set_str(ptr noundef %8, i32 noundef 35, ptr noundef nonnull @.str.30)
  %9 = load ptr, ptr %7, align 8
  tail call void @col_clear(ptr noundef %9, i32 noundef 25)
  %10 = tail call zeroext i8 @tvb_get_uint8(ptr noundef %0, i32 noundef 0)
  %11 = zext i8 %10 to i32
  %.not = icmp eq i8 %10, 0
  br i1 %.not, label %14, label %12

12:                                               ; preds = %4
  %13 = load ptr, ptr %7, align 8
  tail call void @col_set_str(ptr noundef %13, i32 noundef 35, ptr noundef nonnull @.str.165)
  br label %14

14:                                               ; preds = %12, %4
  %15 = phi ptr [ @.str.165, %12 ], [ @.str.30, %4 ]
  %16 = tail call zeroext i8 @tvb_get_uint8(ptr noundef %0, i32 noundef 1)
  %17 = zext i8 %16 to i32
  %18 = load ptr, ptr %7, align 8
  %19 = tail call ptr @val_to_str(i32 noundef %17, ptr noundef nonnull @tacacs_type_vals, ptr noundef nonnull @.str.191)
  tail call void @col_add_str(ptr noundef %18, i32 noundef 25, ptr noundef %19)
  %20 = load i32, ptr @proto_tacacs, align 4
  %21 = tail call ptr (ptr, i32, ptr, i32, i32, ptr, ...) @proto_tree_add_protocol_format(ptr noundef %2, i32 noundef %20, ptr noundef %0, i32 noundef 0, i32 noundef -1, ptr noundef nonnull %15)
  %22 = load i32, ptr @ett_tacacs, align 4
  %23 = tail call ptr @proto_item_add_subtree(ptr noundef %21, i32 noundef %22)
  %24 = load i32, ptr @hf_tacacs_version, align 4
  %25 = tail call ptr @proto_tree_add_uint(ptr noundef %23, i32 noundef %24, ptr noundef %0, i32 noundef 0, i32 noundef 1, i32 noundef %11)
  %26 = load i32, ptr @hf_tacacs_type, align 4
  %27 = tail call ptr @proto_tree_add_uint(ptr noundef %23, i32 noundef %26, ptr noundef %0, i32 noundef 1, i32 noundef 1, i32 noundef %17)
  %28 = load i32, ptr @hf_tacacs_nonce, align 4
  %29 = tail call ptr @proto_tree_add_item(ptr noundef %23, i32 noundef %28, ptr noundef %0, i32 noundef 2, i32 noundef 2, i32 noundef 0)
  br i1 %.not, label %30, label %49

30:                                               ; preds = %14
  %.not60 = icmp eq i8 %16, 2
  br i1 %.not60, label %44, label %31

31:                                               ; preds = %30
  %32 = load i32, ptr @hf_tacacs_userlen, align 4
  %33 = call ptr @proto_tree_add_item_ret_uint(ptr noundef %23, i32 noundef %32, ptr noundef %0, i32 noundef 4, i32 noundef 1, i32 noundef 0, ptr noundef nonnull %5)
  %34 = load i32, ptr @hf_tacacs_passlen, align 4
  %35 = call ptr @proto_tree_add_item_ret_uint(ptr noundef %23, i32 noundef %34, ptr noundef %0, i32 noundef 5, i32 noundef 1, i32 noundef 0, ptr noundef nonnull %6)
  %36 = load i32, ptr @hf_tacacs_username, align 4
  %37 = load i32, ptr %5, align 4
  %38 = call ptr @proto_tree_add_item(ptr noundef %23, i32 noundef %36, ptr noundef %0, i32 noundef 6, i32 noundef %37, i32 noundef 0)
  %39 = load i32, ptr @hf_tacacs_password, align 4
  %40 = load i32, ptr %5, align 4
  %41 = add i32 %40, 6
  %42 = load i32, ptr %6, align 4
  %43 = call ptr @proto_tree_add_item(ptr noundef %23, i32 noundef %39, ptr noundef %0, i32 noundef %41, i32 noundef %42, i32 noundef 0)
  br label %79

44:                                               ; preds = %30
  %45 = load i32, ptr @hf_tacacs_response, align 4
  %46 = tail call ptr @proto_tree_add_item(ptr noundef %23, i32 noundef %45, ptr noundef %0, i32 noundef 4, i32 noundef 1, i32 noundef 0)
  %47 = load i32, ptr @hf_tacacs_reason, align 4
  %48 = tail call ptr @proto_tree_add_item(ptr noundef %23, i32 noundef %47, ptr noundef %0, i32 noundef 5, i32 noundef 1, i32 noundef 0)
  br label %79

49:                                               ; preds = %14
  %50 = load i32, ptr @hf_tacacs_userlen, align 4
  %51 = call ptr @proto_tree_add_item_ret_uint(ptr noundef %23, i32 noundef %50, ptr noundef %0, i32 noundef 4, i32 noundef 1, i32 noundef 0, ptr noundef nonnull %5)
  %52 = load i32, ptr @hf_tacacs_passlen, align 4
  %53 = call ptr @proto_tree_add_item_ret_uint(ptr noundef %23, i32 noundef %52, ptr noundef %0, i32 noundef 5, i32 noundef 1, i32 noundef 0, ptr noundef nonnull %6)
  %54 = load i32, ptr @hf_tacacs_response, align 4
  %55 = call ptr @proto_tree_add_item(ptr noundef %23, i32 noundef %54, ptr noundef %0, i32 noundef 6, i32 noundef 1, i32 noundef 0)
  %56 = load i32, ptr @hf_tacacs_reason, align 4
  %57 = call ptr @proto_tree_add_item(ptr noundef %23, i32 noundef %56, ptr noundef %0, i32 noundef 7, i32 noundef 1, i32 noundef 0)
  %58 = load i32, ptr @hf_tacacs_result1, align 4
  %59 = call ptr @proto_tree_add_item(ptr noundef %23, i32 noundef %58, ptr noundef %0, i32 noundef 8, i32 noundef 4, i32 noundef 0)
  %60 = load i32, ptr @hf_tacacs_destaddr, align 4
  %61 = call ptr @proto_tree_add_item(ptr noundef %23, i32 noundef %60, ptr noundef %0, i32 noundef 12, i32 noundef 4, i32 noundef 0)
  %62 = load i32, ptr @hf_tacacs_destport, align 4
  %63 = call ptr @proto_tree_add_item(ptr noundef %23, i32 noundef %62, ptr noundef %0, i32 noundef 16, i32 noundef 2, i32 noundef 0)
  %64 = load i32, ptr @hf_tacacs_line, align 4
  %65 = call ptr @proto_tree_add_item(ptr noundef %23, i32 noundef %64, ptr noundef %0, i32 noundef 18, i32 noundef 2, i32 noundef 0)
  %66 = load i32, ptr @hf_tacacs_result2, align 4
  %67 = call ptr @proto_tree_add_item(ptr noundef %23, i32 noundef %66, ptr noundef %0, i32 noundef 20, i32 noundef 4, i32 noundef 0)
  %68 = load i32, ptr @hf_tacacs_result3, align 4
  %69 = call ptr @proto_tree_add_item(ptr noundef %23, i32 noundef %68, ptr noundef %0, i32 noundef 24, i32 noundef 2, i32 noundef 0)
  %.not59 = icmp eq i8 %16, 2
  br i1 %.not59, label %79, label %70

70:                                               ; preds = %49
  %71 = load i32, ptr @hf_tacacs_username, align 4
  %72 = load i32, ptr %5, align 4
  %73 = call ptr @proto_tree_add_item(ptr noundef %23, i32 noundef %71, ptr noundef %0, i32 noundef 26, i32 noundef %72, i32 noundef 0)
  %74 = load i32, ptr @hf_tacacs_password, align 4
  %75 = load i32, ptr %5, align 4
  %76 = add i32 %75, 26
  %77 = load i32, ptr %6, align 4
  %78 = call ptr @proto_tree_add_item(ptr noundef %23, i32 noundef %74, ptr noundef %0, i32 noundef %76, i32 noundef %77, i32 noundef 0)
  br label %79

79:                                               ; preds = %49, %70, %31, %44
  %80 = call i32 @tvb_captured_length(ptr noundef %0)
  call void @llvm.lifetime.end.p0(i64 4, ptr nonnull %6) #10
  call void @llvm.lifetime.end.p0(i64 4, ptr nonnull %5) #10
  ret i32 %80
}